target datalayout = "e-m:e-p270:32:32-p271:32:32-p272:64:64-i64:64-i128:128-f80:128-n8:16:32:64-S128"
target triple = "x86_64-pc-linux-gnu"

%struct._object = type { %union.anon, ptr }
%union.anon = type { i64 }
%struct._typeobject = type { %struct.PyVarObject, ptr, i64, i64, ptr, i64, ptr, ptr, ptr, ptr, ptr, ptr, ptr, ptr, ptr, ptr, ptr, ptr, ptr, i64, ptr, ptr, ptr, ptr, i64, ptr, ptr, ptr, ptr, ptr, ptr, ptr, ptr, ptr, i64, ptr, ptr, ptr, ptr, ptr, ptr, ptr, ptr, ptr, ptr, ptr, i32, ptr, ptr, i8, i16 }
%struct.PyVarObject = type { %struct._object, i64 }

@.str.31 = private unnamed_addr constant [19 x i8] c"PyLong_Check(kind)\00", align 1
@.str.32 = private unnamed_addr constant [40 x i8] c"../cpython/Modules/_testcapi/watchers.c\00", align 1
@__PRETTY_FUNCTION__.add_type_watcher = private unnamed_addr constant [51 x i8] c"PyObject *add_type_watcher(PyObject *, PyObject *)\00", align 1
@g_type_watchers_installed = internal global i32 0, align 4
@g_type_modified_events = internal global ptr null, align 8
@.str.46 = private unnamed_addr constant [24 x i8] c"!g_type_modified_events\00", align 1

; Function Attrs: inlinehint nounwind uwtable
define internal i32 @PyType_HasFeature(ptr noundef %0, i64 noundef %1) #3 {
  %3 = alloca ptr, align 8
  %4 = alloca i64, align 8
  %5 = alloca i64, align 8
  store ptr %0, ptr %3, align 8, !tbaa !43
  store i64 %1, ptr %4, align 8, !tbaa !12
  call void @llvm.lifetime.start.p0(i64 8, ptr %5) #6
  %6 = load ptr, ptr %3, align 8, !tbaa !43
  %7 = getelementptr inbounds nuw %struct._typeobject, ptr %6, i32 0, i32 19
  %8 = load i64, ptr %7, align 8, !tbaa !44
  store i64 %8, ptr %5, align 8, !tbaa !12
  %9 = load i64, ptr %5, align 8, !tbaa !12
  %10 = load i64, ptr %4, align 8, !tbaa !12
  %11 = and i64 %9, %10
  %12 = icmp ne i64 %11, 0
  %13 = zext i1 %12 to i32
  call void @llvm.lifetime.end.p0(i64 8, ptr %5) #6
  ret i32 %13
}

; Function Attrs: inlinehint nounwind uwtable
define internal ptr @_Py_TYPE(ptr noundef %0) #3 {
  %2 = alloca ptr, align 8
  store ptr %0, ptr %2, align 8, !tbaa !3
  %3 = load ptr, ptr %2, align 8, !tbaa !3
  %4 = getelementptr inbounds nuw %struct._object, ptr %3, i32 0, i32 1
  %5 = load ptr, ptr %4, align 8, !tbaa !51
  ret ptr %5
}

; Function Attrs: nounwind uwtable
define internal ptr @add_type_watcher(ptr noundef %0, ptr noundef %1) #0 {
  %3 = alloca ptr, align 8
  %4 = alloca ptr, align 8
  %5 = alloca ptr, align 8
  %6 = alloca i32, align 4
  %7 = alloca i64, align 8
  %8 = alloca i32, align 4
  store ptr %0, ptr %4, align 8, !tbaa !3
  store ptr %1, ptr %5, align 8, !tbaa !3
  call void @llvm.lifetime.start.p0(i64 4, ptr %6) #6
  %9 = load ptr, ptr %5, align 8, !tbaa !3
  %10 = call ptr @_Py_TYPE(ptr noundef %9)
  %11 = call i32 @PyType_HasFeature(ptr noundef %10, i64 noundef 16777216)
  %12 = icmp ne i32 %11, 0
  br i1 %12, label %13, label %14

13:                                               ; preds = %2
  br label %16

14:                                               ; preds = %2
  call void @__assert_fail(ptr noundef @.str.31, ptr noundef @.str.32, i32 noundef 219, ptr noundef @__PRETTY_FUNCTION__.add_type_watcher) #7
  unreachable

15:                                               ; No predecessors!
  br label %16

16:                                               ; preds = %15, %13
  call void @llvm.lifetime.start.p0(i64 8, ptr %7) #6
  %17 = load ptr, ptr %5, align 8, !tbaa !3
  %18 = call i64 @PyLong_AsLong(ptr noundef %17)
  store i64 %18, ptr %7, align 8, !tbaa !12
  %19 = load i64, ptr %7, align 8, !tbaa !12
  %20 = icmp eq i64 %19, 2
  br i1 %20, label %21, label %23

21:                                               ; preds = %16
  %22 = call i32 @PyType_AddWatcher(ptr noundef @type_modified_callback_wrap)
  store i32 %22, ptr %6, align 4, !tbaa !10
  br label %31

23:                                               ; preds = %16
  %24 = load i64, ptr %7, align 8, !tbaa !12
  %25 = icmp eq i64 %24, 1
  br i1 %25, label %26, label %28

26:                                               ; preds = %23
  %27 = call i32 @PyType_AddWatcher(ptr noundef @type_modified_callback_error)
  store i32 %27, ptr %6, align 4, !tbaa !10
  br label %30

28:                                               ; preds = %23
  %29 = call i32 @PyType_AddWatcher(ptr noundef @type_modified_callback)
  store i32 %29, ptr %6, align 4, !tbaa !10
  br label %30

30:                                               ; preds = %28, %26
  br label %31

31:                                               ; preds = %30, %21
  %32 = load i32, ptr %6, align 4, !tbaa !10
  %33 = icmp slt i32 %32, 0
  br i1 %33, label %34, label %35

34:                                               ; preds = %31
  store ptr null, ptr %3, align 8
  store i32 1, ptr %8, align 4
  br label %55

35:                                               ; preds = %31
  %36 = load i32, ptr @g_type_watchers_installed, align 4, !tbaa !10
  %37 = icmp ne i32 %36, 0
  br i1 %37, label %49, label %38

38:                                               ; preds = %35
  %39 = load ptr, ptr @g_type_modified_events, align 8, !tbaa !3
  %40 = icmp ne ptr %39, null
  br i1 %40, label %42, label %41

41:                                               ; preds = %38
  br label %44

42:                                               ; preds = %38
  call void @__assert_fail(ptr noundef @.str.46, ptr noundef @.str.32, i32 noundef 234, ptr noundef @__PRETTY_FUNCTION__.add_type_watcher) #7
  unreachable

43:                                               ; No predecessors!
  br label %44

44:                                               ; preds = %43, %41
  %45 = call ptr @PyList_New(i64 noundef 0)
  store ptr %45, ptr @g_type_modified_events, align 8, !tbaa !3
  %46 = icmp ne ptr %45, null
  br i1 %46, label %48, label %47

47:                                               ; preds = %44
  store ptr null, ptr %3, align 8
  store i32 1, ptr %8, align 4
  br label %55

48:                                               ; preds = %44
  br label %49

49:                                               ; preds = %48, %35
  %50 = load i32, ptr @g_type_watchers_installed, align 4, !tbaa !10
  %51 = add i32 %50, 1
  store i32 %51, ptr @g_type_watchers_installed, align 4, !tbaa !10
  %52 = load i32, ptr %6, align 4, !tbaa !10
  %53 = sext i32 %52 to i64
  %54 = call ptr @PyLong_FromLong(i64 noundef %53)
  store ptr %54, ptr %3, align 8
  store i32 1, ptr %8, align 4
  br label %55

55:                                               ; preds = %49, %47, %34
  call void @llvm.lifetime.end.p0(i64 8, ptr %7) #6
  call void @llvm.lifetime.end.p0(i64 4, ptr %6) #6
  %56 = load ptr, ptr %3, align 8
  ret ptr %56
}