; Function Attrs: nounwind uwtable
define internal ptr @add_type_watcher(ptr readnone captures(none) %0, ptr noundef %1) #0 {
  %3 = getelementptr i8, ptr %1, i64 8
  %.val = load ptr, ptr %3, align 8, !tbaa !3
  %4 = getelementptr i8, ptr %.val, i64 168
  %.val11 = load i64, ptr %4, align 8, !tbaa !9
  %5 = and i64 %.val11, 16777216
  %.not = icmp eq i64 %5, 0
  br i1 %.not, label %6, label %7

6:                                                ; preds = %2
  tail call void @__assert_fail(ptr noundef nonnull @.str.31, ptr noundef nonnull @.str.32, i32 noundef 219, ptr noundef nonnull @__PRETTY_FUNCTION__.add_type_watcher) #7
  unreachable

7:                                                ; preds = %2
  %8 = tail call i64 @PyLong_AsLong(ptr noundef nonnull %1) #6
  %switch.selectcmp = icmp eq i64 %8, 1
  %switch.select = select i1 %switch.selectcmp, ptr @type_modified_callback_error, ptr @type_modified_callback
  %switch.selectcmp12 = icmp eq i64 %8, 2
  %switch.select13 = select i1 %switch.selectcmp12, ptr @type_modified_callback_wrap, ptr %switch.select
  %9 = tail call i32 @PyType_AddWatcher(ptr noundef nonnull %switch.select13) #6
  %10 = icmp slt i32 %9, 0
  br i1 %10, label %23, label %11

11:                                               ; preds = %7
  %12 = load i32, ptr @g_type_watchers_installed, align 4, !tbaa !20
  %.not8 = icmp eq i32 %12, 0
  br i1 %.not8, label %13, label %18

13:                                               ; preds = %11
  %14 = load ptr, ptr @g_type_modified_events, align 8, !tbaa !21
  %.not9 = icmp eq ptr %14, null
  br i1 %.not9, label %16, label %15

15:                                               ; preds = %13
  tail call void @__assert_fail(ptr noundef nonnull @.str.46, ptr noundef nonnull @.str.32, i32 noundef 234, ptr noundef nonnull @__PRETTY_FUNCTION__.add_type_watcher) #7
  unreachable

16:                                               ; preds = %13
  %17 = tail call ptr @PyList_New(i64 noundef 0) #6
  store ptr %17, ptr @g_type_modified_events, align 8, !tbaa !21
  %.not10 = icmp eq ptr %17, null
  br i1 %.not10, label %23, label %._crit_edge

._crit_edge:                                      ; preds = %16
  %.pre = load i32, ptr @g_type_watchers_installed, align 4, !tbaa !20
  br label %18

18:                                               ; preds = %._crit_edge, %11
  %19 = phi i32 [ %.pre, %._crit_edge ], [ %12, %11 ]
  %20 = add i32 %19, 1
  store i32 %20, ptr @g_type_watchers_installed, align 4, !tbaa !20
  %21 = zext nneg i32 %9 to i64
  %22 = tail call ptr @PyLong_FromLong(i64 noundef %21) #6
  br label %23

23:                                               ; preds = %16, %7, %18
  %.0 = phi ptr [ %22, %18 ], [ null, %7 ], [ null, %16 ]
  ret ptr %.0
}